target datalayout = "e-m:e-p270:32:32-p271:32:32-p272:64:64-i64:64-i128:128-f80:128-n8:16:32:64-S128"
target triple = "x86_64-pc-linux-gnu"

%class.Klass = type <{ %class.Metadata, i32, i32, i32, i32, ptr, ptr, ptr, [8 x ptr], %class.OopHandle, ptr, ptr, ptr, ptr, ptr, i32, %class.AccessFlags, i64, i64, i8, i8, i16, i16, [2 x i8], i32, [4 x i8] }>
%class.Metadata = type { ptr }
%class.OopHandle = type { ptr }
%class.AccessFlags = type { i32 }

@type2name_tab = external global [20 x ptr], align 16
@.str.20 = private unnamed_addr constant [13 x i8] c"{type array \00", align 1
@.str.21 = private unnamed_addr constant [5 x i8] c"bool\00", align 1
@.str.22 = private unnamed_addr constant [3 x i8] c"%s\00", align 1
@.str.23 = private unnamed_addr constant [2 x i8] c"}\00", align 1

; Function Attrs: mustprogress nounwind uwtable
define linkonce_odr hidden noundef zeroext i8 @_ZN5Klass26layout_helper_element_typeEi(i32 noundef %0) #1 comdat align 2 {
  %2 = alloca i32, align 4
  %3 = alloca i32, align 4
  store i32 %0, ptr %2, align 4
  %4 = load i32, ptr %2, align 4
  %5 = ashr i32 %4, 8
  %6 = and i32 %5, 255
  store i32 %6, ptr %3, align 4
  %7 = load i32, ptr %3, align 4
  %8 = trunc i32 %7 to i8
  ret i8 %8
}

; Function Attrs: mustprogress nounwind uwtable
define linkonce_odr hidden noundef i32 @_ZNK5Klass13layout_helperEv(ptr noundef nonnull align 8 dereferenceable(196) %0) #1 comdat align 2 {
  %2 = alloca ptr, align 8
  store ptr %0, ptr %2, align 8
  %3 = load ptr, ptr %2, align 8
  %4 = getelementptr inbounds %class.Klass, ptr %3, i32 0, i32 1
  %5 = load i32, ptr %4, align 8
  ret i32 %5
}

; Function Attrs: mustprogress nounwind uwtable
define linkonce_odr hidden noundef zeroext i8 @_ZNK10ArrayKlass12element_typeEv(ptr noundef nonnull align 8 dereferenceable(216) %0) #1 comdat align 2 {
  %2 = alloca ptr, align 8
  store ptr %0, ptr %2, align 8
  %3 = load ptr, ptr %2, align 8
  %4 = call noundef i32 @_ZNK5Klass13layout_helperEv(ptr noundef nonnull align 8 dereferenceable(196) %3)
  %5 = call noundef zeroext i8 @_ZN5Klass26layout_helper_element_typeEi(i32 noundef %4)
  ret i8 %5
}

; Function Attrs: mustprogress nounwind uwtable
define hidden void @_ZNK14TypeArrayKlass14print_value_onEP12outputStream(ptr noundef nonnull align 8 dereferenceable(220) %0, ptr noundef %1) unnamed_addr #1 align 2 {
  %3 = alloca ptr, align 8
  %4 = alloca ptr, align 8
  %5 = alloca i8, align 1
  store ptr %0, ptr %3, align 8
  store ptr %1, ptr %4, align 8
  %6 = load ptr, ptr %3, align 8
  %7 = load ptr, ptr %4, align 8
  call void (ptr, ptr, ...) @_ZN12outputStream5printEPKcz(ptr noundef nonnull align 8 dereferenceable(56) %7, ptr noundef @.str.20)
  %8 = call noundef zeroext i8 @_ZNK10ArrayKlass12element_typeEv(ptr noundef nonnull align 8 dereferenceable(216) %6)
  store i8 %8, ptr %5, align 1
  %9 = load i8, ptr %5, align 1
  %10 = zext i8 %9 to i32
  %11 = icmp eq i32 %10, 4
  br i1 %11, label %12, label %14

12:                                               ; preds = %2
  %13 = load ptr, ptr %4, align 8
  call void (ptr, ptr, ...) @_ZN12outputStream5printEPKcz(ptr noundef nonnull align 8 dereferenceable(56) %13, ptr noundef @.str.21)
  br label %20

14:                                               ; preds = %2
  %15 = load ptr, ptr %4, align 8
  %16 = load i8, ptr %5, align 1
  %17 = zext i8 %16 to i64
  %18 = getelementptr inbounds [20 x ptr], ptr @type2name_tab, i64 0, i64 %17
  %19 = load ptr, ptr %18, align 8
  call void (ptr, ptr, ...) @_ZN12outputStream5printEPKcz(ptr noundef nonnull align 8 dereferenceable(56) %15, ptr noundef @.str.22, ptr noundef %19)
  br label %20

20:                                               ; preds = %14, %12
  %21 = load ptr, ptr %4, align 8
  call void (ptr, ptr, ...) @_ZN12outputStream5printEPKcz(ptr noundef nonnull align 8 dereferenceable(56) %21, ptr noundef @.str.23)
  ret void
}