; Function Attrs: mustprogress nounwind uwtable
define hidden void @_ZNK14TypeArrayKlass14print_value_onEP12outputStream(ptr nocapture noundef nonnull readonly align 8 dereferenceable(220) %0, ptr noundef nonnull %1) unnamed_addr #0 align 2 {
  tail call void (ptr, ptr, ...) @_ZN12outputStream5printEPKcz(ptr noundef nonnull align 8 dereferenceable(56) %1, ptr noundef nonnull @.str.20) #10
  %3 = getelementptr inbounds i8, ptr %0, i64 8
  %4 = load i32, ptr %3, align 8
  %5 = and i32 %4, 65280
  %6 = icmp eq i32 %5, 1024
  br i1 %6, label %7, label %8

7:                                                ; preds = %2
  tail call void (ptr, ptr, ...) @_ZN12outputStream5printEPKcz(ptr noundef nonnull align 8 dereferenceable(56) %1, ptr noundef nonnull @.str.21) #10
  br label %13

8:                                                ; preds = %2
  %9 = lshr i32 %4, 8
  %.mask = and i32 %9, 255
  %10 = zext nneg i32 %.mask to i64
  %11 = getelementptr inbounds [20 x ptr], ptr @type2name_tab, i64 0, i64 %10
  %12 = load ptr, ptr %11, align 8
  tail call void (ptr, ptr, ...) @_ZN12outputStream5printEPKcz(ptr noundef nonnull align 8 dereferenceable(56) %1, ptr noundef nonnull @.str.22, ptr noundef %12) #10
  br label %13

13:                                               ; preds = %8, %7
  tail call void (ptr, ptr, ...) @_ZN12outputStream5printEPKcz(ptr noundef nonnull align 8 dereferenceable(56) %1, ptr noundef nonnull @.str.23) #10
  ret void
}